; ModuleID = '57/254.c'
source_filename = "57/254.c"
target datalayout = "e-m:e-p270:32:32-p271:32:32-p272:64:64-i64:64-f80:128-n8:16:32:64-S128"
target triple = "x86_64-pc-linux-gnu"

@__const.main.b = private unnamed_addr constant [3 x i8] c"er\00", align 1
@__const.main.c = private unnamed_addr constant [3 x i8] c"ly\00", align 1
@__const.main.d = private unnamed_addr constant [4 x i8] c"ing\00", align 1
@.str = private unnamed_addr constant [3 x i8] c"%d\00", align 1
@.str.1 = private unnamed_addr constant [3 x i8] c"%s\00", align 1
@.str.2 = private unnamed_addr constant [3 x i8] c"%c\00", align 1
@.str.3 = private unnamed_addr constant [2 x i8] c"\0A\00", align 1

; Function Attrs: noinline nounwind uwtable
define dso_local void @main() #0 {
  %1 = alloca i32, align 4
  %2 = alloca i32, align 4
  %3 = alloca i32, align 4
  %4 = alloca i32, align 4
  %5 = alloca [50 x i32], align 16
  %6 = alloca [50 x [20 x i8]], align 16
  %7 = alloca [3 x i8], align 1
  %8 = alloca [3 x i8], align 1
  %9 = alloca [4 x i8], align 1
  %10 = alloca [3 x i8], align 1
  %11 = alloca [4 x i8], align 1
  %12 = bitcast [50 x i32]* %5 to i8*
  call void @llvm.memset.p0i8.i64(i8* align 16 %12, i8 0, i64 200, i1 false)
  %13 = bitcast [3 x i8]* %7 to i8*
  call void @llvm.memcpy.p0i8.p0i8.i64(i8* align 1 %13, i8* align 1 getelementptr inbounds ([3 x i8], [3 x i8]* @__const.main.b, i32 0, i32 0), i64 3, i1 false)
  %14 = bitcast [3 x i8]* %8 to i8*
  call void @llvm.memcpy.p0i8.p0i8.i64(i8* align 1 %14, i8* align 1 getelementptr inbounds ([3 x i8], [3 x i8]* @__const.main.c, i32 0, i32 0), i64 3, i1 false)
  %15 = bitcast [4 x i8]* %9 to i8*
  call void @llvm.memcpy.p0i8.p0i8.i64(i8* align 1 %15, i8* align 1 getelementptr inbounds ([4 x i8], [4 x i8]* @__const.main.d, i32 0, i32 0), i64 4, i1 false)
  %16 = call i32 (i8*, ...) @__isoc99_scanf(i8* getelementptr inbounds ([3 x i8], [3 x i8]* @.str, i64 0, i64 0), i32* %1)
  store i32 0, i32* %2, align 4
  br label %17

17:                                               ; preds = %27, %0
  %18 = load i32, i32* %2, align 4
  %19 = load i32, i32* %1, align 4
  %20 = icmp slt i32 %18, %19
  br i1 %20, label %21, label %30

21:                                               ; preds = %17
  %22 = load i32, i32* %2, align 4
  %23 = sext i32 %22 to i64
  %24 = getelementptr inbounds [50 x [20 x i8]], [50 x [20 x i8]]* %6, i64 0, i64 %23
  %25 = getelementptr inbounds [20 x i8], [20 x i8]* %24, i64 0, i64 0
  %26 = call i32 (i8*, ...) @__isoc99_scanf(i8* getelementptr inbounds ([3 x i8], [3 x i8]* @.str.1, i64 0, i64 0), i8* %25)
  br label %27

27:                                               ; preds = %21
  %28 = load i32, i32* %2, align 4
  %29 = add nsw i32 %28, 1
  store i32 %29, i32* %2, align 4
  br label %17

30:                                               ; preds = %17
  store i32 0, i32* %2, align 4
  br label %31

31:                                               ; preds = %178, %30
  %32 = load i32, i32* %2, align 4
  %33 = load i32, i32* %1, align 4
  %34 = icmp slt i32 %32, %33
  br i1 %34, label %35, label %181

35:                                               ; preds = %31
  %36 = load i32, i32* %2, align 4
  %37 = sext i32 %36 to i64
  %38 = getelementptr inbounds [50 x [20 x i8]], [50 x [20 x i8]]* %6, i64 0, i64 %37
  %39 = load i32, i32* %2, align 4
  %40 = sext i32 %39 to i64
  %41 = getelementptr inbounds [50 x [20 x i8]], [50 x [20 x i8]]* %6, i64 0, i64 %40
  %42 = getelementptr inbounds [20 x i8], [20 x i8]* %41, i64 0, i64 0
  %43 = call i64 @strlen(i8* %42) #4
  %44 = sub i64 %43, 1
  %45 = getelementptr inbounds [20 x i8], [20 x i8]* %38, i64 0, i64 %44
  %46 = load i8, i8* %45, align 1
  %47 = sext i8 %46 to i32
  %48 = getelementptr inbounds [3 x i8], [3 x i8]* %7, i64 0, i64 1
  %49 = load i8, i8* %48, align 1
  %50 = sext i8 %49 to i32
  %51 = sub nsw i32 %47, %50
  %52 = icmp eq i32 %51, 0
  br i1 %52, label %53, label %76

53:                                               ; preds = %35
  %54 = load i32, i32* %2, align 4
  %55 = sext i32 %54 to i64
  %56 = getelementptr inbounds [50 x [20 x i8]], [50 x [20 x i8]]* %6, i64 0, i64 %55
  %57 = load i32, i32* %2, align 4
  %58 = sext i32 %57 to i64
  %59 = getelementptr inbounds [50 x [20 x i8]], [50 x [20 x i8]]* %6, i64 0, i64 %58
  %60 = getelementptr inbounds [20 x i8], [20 x i8]* %59, i64 0, i64 0
  %61 = call i64 @strlen(i8* %60) #4
  %62 = sub i64 %61, 2
  %63 = getelementptr inbounds [20 x i8], [20 x i8]* %56, i64 0, i64 %62
  %64 = load i8, i8* %63, align 1
  %65 = sext i8 %64 to i32
  %66 = getelementptr inbounds [3 x i8], [3 x i8]* %7, i64 0, i64 0
  %67 = load i8, i8* %66, align 1
  %68 = sext i8 %67 to i32
  %69 = sub nsw i32 %65, %68
  %70 = icmp eq i32 %69, 0
  br i1 %70, label %71, label %75

71:                                               ; preds = %53
  %72 = load i32, i32* %2, align 4
  %73 = sext i32 %72 to i64
  %74 = getelementptr inbounds [50 x i32], [50 x i32]* %5, i64 0, i64 %73
  store i32 1, i32* %74, align 4
  br label %75

75:                                               ; preds = %71, %53
  br label %76

76:                                               ; preds = %75, %35
  %77 = load i32, i32* %2, align 4
  %78 = sext i32 %77 to i64
  %79 = getelementptr inbounds [50 x [20 x i8]], [50 x [20 x i8]]* %6, i64 0, i64 %78
  %80 = load i32, i32* %2, align 4
  %81 = sext i32 %80 to i64
  %82 = getelementptr inbounds [50 x [20 x i8]], [50 x [20 x i8]]* %6, i64 0, i64 %81
  %83 = getelementptr inbounds [20 x i8], [20 x i8]* %82, i64 0, i64 0
  %84 = call i64 @strlen(i8* %83) #4
  %85 = sub i64 %84, 1
  %86 = getelementptr inbounds [20 x i8], [20 x i8]* %79, i64 0, i64 %85
  %87 = load i8, i8* %86, align 1
  %88 = sext i8 %87 to i32
  %89 = getelementptr inbounds [3 x i8], [3 x i8]* %8, i64 0, i64 1
  %90 = load i8, i8* %89, align 1
  %91 = sext i8 %90 to i32
  %92 = sub nsw i32 %88, %91
  %93 = icmp eq i32 %92, 0
  br i1 %93, label %94, label %117

94:                                               ; preds = %76
  %95 = load i32, i32* %2, align 4
  %96 = sext i32 %95 to i64
  %97 = getelementptr inbounds [50 x [20 x i8]], [50 x [20 x i8]]* %6, i64 0, i64 %96
  %98 = load i32, i32* %2, align 4
  %99 = sext i32 %98 to i64
  %100 = getelementptr inbounds [50 x [20 x i8]], [50 x [20 x i8]]* %6, i64 0, i64 %99
  %101 = getelementptr inbounds [20 x i8], [20 x i8]* %100, i64 0, i64 0
  %102 = call i64 @strlen(i8* %101) #4
  %103 = sub i64 %102, 2
  %104 = getelementptr inbounds [20 x i8], [20 x i8]* %97, i64 0, i64 %103
  %105 = load i8, i8* %104, align 1
  %106 = sext i8 %105 to i32
  %107 = getelementptr inbounds [3 x i8], [3 x i8]* %8, i64 0, i64 0
  %108 = load i8, i8* %107, align 1
  %109 = sext i8 %108 to i32
  %110 = sub nsw i32 %106, %109
  %111 = icmp eq i32 %110, 0
  br i1 %111, label %112, label %116

112:                                              ; preds = %94
  %113 = load i32, i32* %2, align 4
  %114 = sext i32 %113 to i64
  %115 = getelementptr inbounds [50 x i32], [50 x i32]* %5, i64 0, i64 %114
  store i32 1, i32* %115, align 4
  br label %116

116:                                              ; preds = %112, %94
  br label %117

117:                                              ; preds = %116, %76
  %118 = load i32, i32* %2, align 4
  %119 = sext i32 %118 to i64
  %120 = getelementptr inbounds [50 x [20 x i8]], [50 x [20 x i8]]* %6, i64 0, i64 %119
  %121 = load i32, i32* %2, align 4
  %122 = sext i32 %121 to i64
  %123 = getelementptr inbounds [50 x [20 x i8]], [50 x [20 x i8]]* %6, i64 0, i64 %122
  %124 = getelementptr inbounds [20 x i8], [20 x i8]* %123, i64 0, i64 0
  %125 = call i64 @strlen(i8* %124) #4
  %126 = sub i64 %125, 1
  %127 = getelementptr inbounds [20 x i8], [20 x i8]* %120, i64 0, i64 %126
  %128 = load i8, i8* %127, align 1
  %129 = sext i8 %128 to i32
  %130 = getelementptr inbounds [4 x i8], [4 x i8]* %9, i64 0, i64 2
  %131 = load i8, i8* %130, align 1
  %132 = sext i8 %131 to i32
  %133 = sub nsw i32 %129, %132
  %134 = icmp eq i32 %133, 0
  br i1 %134, label %135, label %177

135:                                              ; preds = %117
  %136 = load i32, i32* %2, align 4
  %137 = sext i32 %136 to i64
  %138 = getelementptr inbounds [50 x [20 x i8]], [50 x [20 x i8]]* %6, i64 0, i64 %137
  %139 = load i32, i32* %2, align 4
  %140 = sext i32 %139 to i64
  %141 = getelementptr inbounds [50 x [20 x i8]], [50 x [20 x i8]]* %6, i64 0, i64 %140
  %142 = getelementptr inbounds [20 x i8], [20 x i8]* %141, i64 0, i64 0
  %143 = call i64 @strlen(i8* %142) #4
  %144 = sub i64 %143, 2
  %145 = getelementptr inbounds [20 x i8], [20 x i8]* %138, i64 0, i64 %144
  %146 = load i8, i8* %145, align 1
  %147 = sext i8 %146 to i32
  %148 = getelementptr inbounds [4 x i8], [4 x i8]* %9, i64 0, i64 1
  %149 = load i8, i8* %148, align 1
  %150 = sext i8 %149 to i32
  %151 = sub nsw i32 %147, %150
  %152 = icmp eq i32 %151, 0
  br i1 %152, label %153, label %176

153:                                              ; preds = %135
  %154 = load i32, i32* %2, align 4
  %155 = sext i32 %154 to i64
  %156 = getelementptr inbounds [50 x [20 x i8]], [50 x [20 x i8]]* %6, i64 0, i64 %155
  %157 = load i32, i32* %2, align 4
  %158 = sext i32 %157 to i64
  %159 = getelementptr inbounds [50 x [20 x i8]], [50 x [20 x i8]]* %6, i64 0, i64 %158
  %160 = getelementptr inbounds [20 x i8], [20 x i8]* %159, i64 0, i64 0
  %161 = call i64 @strlen(i8* %160) #4
  %162 = sub i64 %161, 3
  %163 = getelementptr inbounds [20 x i8], [20 x i8]* %156, i64 0, i64 %162
  %164 = load i8, i8* %163, align 1
  %165 = sext i8 %164 to i32
  %166 = getelementptr inbounds [4 x i8], [4 x i8]* %9, i64 0, i64 0
  %167 = load i8, i8* %166, align 1
  %168 = sext i8 %167 to i32
  %169 = sub nsw i32 %165, %168
  %170 = icmp eq i32 %169, 0
  br i1 %170, label %171, label %175

171:                                              ; preds = %153
  %172 = load i32, i32* %2, align 4
  %173 = sext i32 %172 to i64
  %174 = getelementptr inbounds [50 x i32], [50 x i32]* %5, i64 0, i64 %173
  store i32 2, i32* %174, align 4
  br label %175

175:                                              ; preds = %171, %153
  br label %176

176:                                              ; preds = %175, %135
  br label %177

177:                                              ; preds = %176, %117
  br label %178

178:                                              ; preds = %177
  %179 = load i32, i32* %2, align 4
  %180 = add nsw i32 %179, 1
  store i32 %180, i32* %2, align 4
  br label %31

181:                                              ; preds = %31
  store i32 0, i32* %2, align 4
  br label %182

182:                                              ; preds = %264, %181
  %183 = load i32, i32* %2, align 4
  %184 = load i32, i32* %1, align 4
  %185 = icmp slt i32 %183, %184
  br i1 %185, label %186, label %267

186:                                              ; preds = %182
  %187 = load i32, i32* %2, align 4
  %188 = sext i32 %187 to i64
  %189 = getelementptr inbounds [50 x i32], [50 x i32]* %5, i64 0, i64 %188
  %190 = load i32, i32* %189, align 4
  %191 = icmp eq i32 %190, 0
  br i1 %191, label %192, label %198

192:                                              ; preds = %186
  %193 = load i32, i32* %2, align 4
  %194 = sext i32 %193 to i64
  %195 = getelementptr inbounds [50 x [20 x i8]], [50 x [20 x i8]]* %6, i64 0, i64 %194
  %196 = getelementptr inbounds [20 x i8], [20 x i8]* %195, i64 0, i64 0
  %197 = call i32 (i8*, ...) @printf(i8* getelementptr inbounds ([3 x i8], [3 x i8]* @.str.1, i64 0, i64 0), i8* %196)
  br label %262

198:                                              ; preds = %186
  %199 = load i32, i32* %2, align 4
  %200 = sext i32 %199 to i64
  %201 = getelementptr inbounds [50 x i32], [50 x i32]* %5, i64 0, i64 %200
  %202 = load i32, i32* %201, align 4
  %203 = icmp eq i32 %202, 1
  br i1 %203, label %204, label %229

204:                                              ; preds = %198
  store i32 0, i32* %4, align 4
  br label %205

205:                                              ; preds = %225, %204
  %206 = load i32, i32* %4, align 4
  %207 = sext i32 %206 to i64
  %208 = load i32, i32* %2, align 4
  %209 = sext i32 %208 to i64
  %210 = getelementptr inbounds [50 x [20 x i8]], [50 x [20 x i8]]* %6, i64 0, i64 %209
  %211 = getelementptr inbounds [20 x i8], [20 x i8]* %210, i64 0, i64 0
  %212 = call i64 @strlen(i8* %211) #4
  %213 = sub i64 %212, 2
  %214 = icmp ult i64 %207, %213
  br i1 %214, label %215, label %228

215:                                              ; preds = %205
  %216 = load i32, i32* %2, align 4
  %217 = sext i32 %216 to i64
  %218 = getelementptr inbounds [50 x [20 x i8]], [50 x [20 x i8]]* %6, i64 0, i64 %217
  %219 = load i32, i32* %4, align 4
  %220 = sext i32 %219 to i64
  %221 = getelementptr inbounds [20 x i8], [20 x i8]* %218, i64 0, i64 %220
  %222 = load i8, i8* %221, align 1
  %223 = sext i8 %222 to i32
  %224 = call i32 (i8*, ...) @printf(i8* getelementptr inbounds ([3 x i8], [3 x i8]* @.str.2, i64 0, i64 0), i32 %223)
  br label %225

225:                                              ; preds = %215
  %226 = load i32, i32* %4, align 4
  %227 = add nsw i32 %226, 1
  store i32 %227, i32* %4, align 4
  br label %205

228:                                              ; preds = %205
  br label %261

229:                                              ; preds = %198
  %230 = load i32, i32* %2, align 4
  %231 = sext i32 %230 to i64
  %232 = getelementptr inbounds [50 x i32], [50 x i32]* %5, i64 0, i64 %231
  %233 = load i32, i32* %232, align 4
  %234 = icmp eq i32 %233, 2
  br i1 %234, label %235, label %260

235:                                              ; preds = %229
  store i32 0, i32* %4, align 4
  br label %236

236:                                              ; preds = %256, %235
  %237 = load i32, i32* %4, align 4
  %238 = sext i32 %237 to i64
  %239 = load i32, i32* %2, align 4
  %240 = sext i32 %239 to i64
  %241 = getelementptr inbounds [50 x [20 x i8]], [50 x [20 x i8]]* %6, i64 0, i64 %240
  %242 = getelementptr inbounds [20 x i8], [20 x i8]* %241, i64 0, i64 0
  %243 = call i64 @strlen(i8* %242) #4
  %244 = sub i64 %243, 3
  %245 = icmp ult i64 %238, %244
  br i1 %245, label %246, label %259

246:                                              ; preds = %236
  %247 = load i32, i32* %2, align 4
  %248 = sext i32 %247 to i64
  %249 = getelementptr inbounds [50 x [20 x i8]], [50 x [20 x i8]]* %6, i64 0, i64 %248
  %250 = load i32, i32* %4, align 4
  %251 = sext i32 %250 to i64
  %252 = getelementptr inbounds [20 x i8], [20 x i8]* %249, i64 0, i64 %251
  %253 = load i8, i8* %252, align 1
  %254 = sext i8 %253 to i32
  %255 = call i32 (i8*, ...) @printf(i8* getelementptr inbounds ([3 x i8], [3 x i8]* @.str.2, i64 0, i64 0), i32 %254)
  br label %256

256:                                              ; preds = %246
  %257 = load i32, i32* %4, align 4
  %258 = add nsw i32 %257, 1
  store i32 %258, i32* %4, align 4
  br label %236

259:                                              ; preds = %236
  br label %260

260:                                              ; preds = %259, %229
  br label %261

261:                                              ; preds = %260, %228
  br label %262

262:                                              ; preds = %261, %192
  %263 = call i32 (i8*, ...) @printf(i8* getelementptr inbounds ([2 x i8], [2 x i8]* @.str.3, i64 0, i64 0))
  br label %264

264:                                              ; preds = %262
  %265 = load i32, i32* %2, align 4
  %266 = add nsw i32 %265, 1
  store i32 %266, i32* %2, align 4
  br label %182

267:                                              ; preds = %182
  ret void
}

; Function Attrs: argmemonly nounwind willreturn
declare void @llvm.memset.p0i8.i64(i8* nocapture writeonly, i8, i64, i1 immarg) #1

; Function Attrs: argmemonly nounwind willreturn
declare void @llvm.memcpy.p0i8.p0i8.i64(i8* noalias nocapture writeonly, i8* noalias nocapture readonly, i64, i1 immarg) #1

declare dso_local i32 @__isoc99_scanf(i8*, ...) #2

; Function Attrs: nounwind readonly
declare dso_local i64 @strlen(i8*) #3

declare dso_local i32 @printf(i8*, ...) #2


!llvm.module.flags = !{!0}
!llvm.ident = !{!1}

!0 = !{i32 1, !"wchar_size", i32 4}
!1 = !{!"clang version 10.0.0-4ubuntu1 "}
